target datalayout = "e-m:e-p270:32:32-p271:32:32-p272:64:64-i64:64-i128:128-f80:128-n8:16:32:64-S128"
target triple = "x86_64-pc-linux-gnu"

%struct.Dec_Edge_t_ = type { i32 }
%struct.Dec_Graph_t_ = type { i32, i32, i32, i32, ptr, %struct.Dec_Edge_t_ }

; Function Attrs: inlinehint nounwind uwtable
define internal void @Dec_GraphFree(ptr noundef %0) #2 {
  %2 = alloca ptr, align 8
  store ptr %0, ptr %2, align 8, !tbaa !8
  %3 = load ptr, ptr %2, align 8, !tbaa !8
  %4 = getelementptr inbounds nuw %struct.Dec_Graph_t_, ptr %3, i32 0, i32 4
  %5 = load ptr, ptr %4, align 8, !tbaa !22
  %6 = icmp ne ptr %5, null
  br i1 %6, label %7, label %13

7:                                                ; preds = %1
  %8 = load ptr, ptr %2, align 8, !tbaa !8
  %9 = getelementptr inbounds nuw %struct.Dec_Graph_t_, ptr %8, i32 0, i32 4
  %10 = load ptr, ptr %9, align 8, !tbaa !22
  call void @free(ptr noundef %10) #11
  %11 = load ptr, ptr %2, align 8, !tbaa !8
  %12 = getelementptr inbounds nuw %struct.Dec_Graph_t_, ptr %11, i32 0, i32 4
  store ptr null, ptr %12, align 8, !tbaa !22
  br label %14

13:                                               ; preds = %1
  br label %14

14:                                               ; preds = %13, %7
  %15 = load ptr, ptr %2, align 8, !tbaa !8
  %16 = icmp ne ptr %15, null
  br i1 %16, label %17, label %19

17:                                               ; preds = %14
  %18 = load ptr, ptr %2, align 8, !tbaa !8
  call void @free(ptr noundef %18) #11
  store ptr null, ptr %2, align 8, !tbaa !8
  br label %20

19:                                               ; preds = %14
  br label %20

20:                                               ; preds = %19, %17
  ret void
}

; Function Attrs: inlinehint nounwind uwtable
define internal i32 @Abc_LitNotCond(i32 noundef %0, i32 noundef %1) #2 {
  %3 = alloca i32, align 4
  %4 = alloca i32, align 4
  store i32 %0, ptr %3, align 4, !tbaa !17
  store i32 %1, ptr %4, align 4, !tbaa !17
  %5 = load i32, ptr %3, align 4, !tbaa !17
  %6 = load i32, ptr %4, align 4, !tbaa !17
  %7 = icmp sgt i32 %6, 0
  %8 = zext i1 %7 to i32
  %9 = xor i32 %5, %8
  ret i32 %9
}

; Function Attrs: nounwind uwtable
define i32 @Gia_ManFactorNode(ptr noundef %0, ptr noundef %1, ptr noundef %2) #0 {
  %4 = alloca i32, align 4
  %5 = alloca ptr, align 8
  %6 = alloca ptr, align 8
  %7 = alloca ptr, align 8
  %8 = alloca ptr, align 8
  %9 = alloca i32, align 4
  store ptr %0, ptr %5, align 8, !tbaa !3
  store ptr %1, ptr %6, align 8, !tbaa !23
  store ptr %2, ptr %7, align 8, !tbaa !25
  %10 = load ptr, ptr %6, align 8, !tbaa !23
  %11 = call i32 @Kit_PlaGetVarNum(ptr noundef %10)
  %12 = icmp eq i32 %11, 0
  br i1 %12, label %13, label %17

13:                                               ; preds = %3
  %14 = load ptr, ptr %6, align 8, !tbaa !23
  %15 = call i32 @Kit_PlaIsConst0(ptr noundef %14)
  %16 = call i32 @Abc_LitNotCond(i32 noundef 1, i32 noundef %15)
  store i32 %16, ptr %4, align 4
  br label %39

17:                                               ; preds = %3
  %18 = load ptr, ptr %6, align 8, !tbaa !23
  %19 = call i32 @Kit_PlaGetVarNum(ptr noundef %18)
  %20 = icmp sgt i32 %19, 2
  br i1 %20, label %21, label %34

21:                                               ; preds = %17
  %22 = load ptr, ptr %6, align 8, !tbaa !23
  %23 = call i32 @Kit_PlaGetCubeNum(ptr noundef %22)
  %24 = icmp sgt i32 %23, 1
  br i1 %24, label %25, label %34

25:                                               ; preds = %21
  call void @llvm.lifetime.start.p0(i64 8, ptr %8) #11
  %26 = load ptr, ptr %6, align 8, !tbaa !23
  %27 = call ptr @Dec_Factor(ptr noundef %26)
  store ptr %27, ptr %8, align 8, !tbaa !8
  call void @llvm.lifetime.start.p0(i64 4, ptr %9) #11
  %28 = load ptr, ptr %5, align 8, !tbaa !3
  %29 = load ptr, ptr %8, align 8, !tbaa !8
  %30 = load ptr, ptr %7, align 8, !tbaa !25
  %31 = call i32 @Gia_ManFactorGraph(ptr noundef %28, ptr noundef %29, ptr noundef %30)
  store i32 %31, ptr %9, align 4, !tbaa !17
  %32 = load ptr, ptr %8, align 8, !tbaa !8
  call void @Dec_GraphFree(ptr noundef %32)
  %33 = load i32, ptr %9, align 4, !tbaa !17
  store i32 %33, ptr %4, align 4
  call void @llvm.lifetime.end.p0(i64 4, ptr %9) #11
  call void @llvm.lifetime.end.p0(i64 8, ptr %8) #11
  br label %39

34:                                               ; preds = %21, %17
  %35 = load ptr, ptr %5, align 8, !tbaa !3
  %36 = load ptr, ptr %6, align 8, !tbaa !23
  %37 = load ptr, ptr %7, align 8, !tbaa !25
  %38 = call i32 @Gia_ManSopToAig(ptr noundef %35, ptr noundef %36, ptr noundef %37)
  store i32 %38, ptr %4, align 4
  br label %39

39:                                               ; preds = %34, %25, %13
  %40 = load i32, ptr %4, align 4
  ret i32 %40
}