; Function Attrs: nounwind uwtable
define i32 @Gia_ManFactorNode(ptr noundef %0, ptr noundef %1, ptr noundef readonly captures(none) %2) local_unnamed_addr #0 {
  %4 = tail call i32 @Kit_PlaGetVarNum(ptr noundef %1) #18
  %5 = icmp eq i32 %4, 0
  br i1 %5, label %6, label %10

6:                                                ; preds = %3
  %7 = tail call i32 @Kit_PlaIsConst0(ptr noundef %1) #18
  %8 = icmp slt i32 %7, 1
  %9 = zext i1 %8 to i32
  br label %24

10:                                               ; preds = %3
  %11 = tail call i32 @Kit_PlaGetVarNum(ptr noundef %1) #18
  %12 = icmp sgt i32 %11, 2
  br i1 %12, label %13, label %22

13:                                               ; preds = %10
  %14 = tail call i32 @Kit_PlaGetCubeNum(ptr noundef %1) #18
  %15 = icmp sgt i32 %14, 1
  br i1 %15, label %16, label %22

16:                                               ; preds = %13
  %17 = tail call ptr @Dec_Factor(ptr noundef %1) #18
  %18 = tail call i32 @Gia_ManFactorGraph(ptr noundef %0, ptr noundef %17, ptr noundef %2)
  %19 = getelementptr inbounds nuw i8, ptr %17, i64 16
  %20 = load ptr, ptr %19, align 8, !tbaa !13
  %.not.i = icmp eq ptr %20, null
  br i1 %.not.i, label %Dec_GraphFree.exit, label %21

21:                                               ; preds = %16
  tail call void @free(ptr noundef nonnull %20) #18
  br label %Dec_GraphFree.exit

Dec_GraphFree.exit:                               ; preds = %16, %21
  tail call void @free(ptr noundef nonnull %17) #18
  br label %24

22:                                               ; preds = %13, %10
  %23 = tail call i32 @Gia_ManSopToAig(ptr noundef %0, ptr noundef %1, ptr noundef %2)
  br label %24

24:                                               ; preds = %22, %Dec_GraphFree.exit, %6
  %.0 = phi i32 [ %9, %6 ], [ %18, %Dec_GraphFree.exit ], [ %23, %22 ]
  ret i32 %.0
}